; Function Attrs: mustprogress nounwind uwtable
define dso_local noundef i32 @_ZNK4llvm3opt8OptTable11findNearestENS_9StringRefERNSt7__cxx1112basic_stringIcSt11char_traitsIcESaIcEEENS0_10VisibilityEjj(ptr noundef nonnull readonly align 8 captures(none) dereferenceable(88) %0, ptr %1, i64 %2, ptr noundef nonnull align 8 dereferenceable(32) %3, i32 %4, i32 noundef %5, i32 noundef %6) local_unnamed_addr #1 align 2 {
  %8 = alloca %"class.std::function", align 8
  %9 = getelementptr inbounds nuw i8, ptr %8, i64 16
  %10 = getelementptr inbounds nuw i8, ptr %8, i64 24
  call void @llvm.memset.p0.i64(ptr noundef nonnull align 8 dereferenceable(32) %8, i8 0, i64 16, i1 false)
  store i32 %4, ptr %8, align 8
  store ptr @"_ZNSt17_Function_handlerIFbRKN4llvm3opt8OptTable4InfoEEZNKS2_11findNearestENS0_9StringRefERNSt7__cxx1112basic_stringIcSt11char_traitsIcESaIcEEENS1_10VisibilityEjjE3$_0E9_M_invokeERKSt9_Any_dataS5_", ptr %10, align 8
  store ptr @"_ZNSt17_Function_handlerIFbRKN4llvm3opt8OptTable4InfoEEZNKS2_11findNearestENS0_9StringRefERNSt7__cxx1112basic_stringIcSt11char_traitsIcESaIcEEENS1_10VisibilityEjjE3$_0E10_M_managerERSt9_Any_dataRKSI_St18_Manager_operation", ptr %9, align 8
  %11 = call noundef i32 @_ZNK4llvm3opt8OptTable19internalFindNearestENS_9StringRefERNSt7__cxx1112basic_stringIcSt11char_traitsIcESaIcEEEjjSt8functionIFbRKNS1_4InfoEEE(ptr noundef nonnull align 8 dereferenceable(88) %0, ptr %1, i64 %2, ptr noundef nonnull align 8 dereferenceable(32) %3, i32 noundef %5, i32 noundef %6, ptr noundef nonnull %8)
  %12 = load ptr, ptr %9, align 8
  %.not.i.i = icmp eq ptr %12, null
  br i1 %.not.i.i, label %_ZNSt8functionIFbRKN4llvm3opt8OptTable4InfoEEED2Ev.exit, label %13

13:                                               ; preds = %7
  %14 = call noundef zeroext i1 %12(ptr noundef nonnull align 8 dereferenceable(32) %8, ptr noundef nonnull align 8 dereferenceable(32) %8, i32 noundef 3) #22
  br label %_ZNSt8functionIFbRKN4llvm3opt8OptTable4InfoEEED2Ev.exit

_ZNSt8functionIFbRKN4llvm3opt8OptTable4InfoEEED2Ev.exit: ; preds = %7, %13
  ret i32 %11
}